; Function Attrs: mustprogress uwtable
define hidden void @_ZN6Assimp4Ogre20OgreBinarySerializer16ReadMeshExtremesEPNS0_4MeshE(ptr nocapture noundef nonnull readonly align 8 dereferenceable(20) %this, ptr nocapture noundef readnone %0) local_unnamed_addr #2 align 2 personality ptr @__gxx_personality_v0 {
entry:
  %1 = load i32, ptr %this, align 8
  %conv = zext i32 %1 to i64
  %m_reader.i = getelementptr inbounds i8, ptr %this, i64 8
  %2 = load ptr, ptr %m_reader.i, align 8
  %mCurrent.i.i = getelementptr inbounds i8, ptr %2, i64 24
  %3 = load ptr, ptr %mCurrent.i.i, align 8
  %4 = getelementptr i8, ptr %3, i64 %conv
  %add.ptr.i.i = getelementptr i8, ptr %4, i64 -6
  store ptr %add.ptr.i.i, ptr %mCurrent.i.i, align 8
  %mLimit.i.i = getelementptr inbounds i8, ptr %2, i64 40
  %5 = load ptr, ptr %mLimit.i.i, align 8
  %cmp.i.i = icmp ugt ptr %add.ptr.i.i, %5
  br i1 %cmp.i.i, label %if.then.i.i, label %_ZN6Assimp4Ogre20OgreBinarySerializer9SkipBytesEm.exit

if.then.i.i:                                      ; preds = %entry
  %exception.i.i = tail call ptr @__cxa_allocate_exception(i64 16) #19
  invoke void @_ZN17DeadlyImportErrorC2EPKc(ptr noundef nonnull align 8 dereferenceable(16) %exception.i.i, ptr noundef nonnull @.str.68)
          to label %invoke.cont.i.i unwind label %lpad.i.i

invoke.cont.i.i:                                  ; preds = %if.then.i.i
  tail call void @__cxa_throw(ptr nonnull %exception.i.i, ptr nonnull @_ZTI17DeadlyImportError, ptr nonnull @_ZN17DeadlyImportErrorD2Ev) #20
  unreachable

lpad.i.i:                                         ; preds = %if.then.i.i
  %6 = landingpad { ptr, i32 }
          cleanup
  tail call void @__cxa_free_exception(ptr %exception.i.i) #19
  resume { ptr, i32 } %6

_ZN6Assimp4Ogre20OgreBinarySerializer9SkipBytesEm.exit: ; preds = %entry
  ret void
}